target datalayout = "e-m:e-p270:32:32-p271:32:32-p272:64:64-i64:64-i128:128-f80:128-n8:16:32:64-S128"
target triple = "x86_64-pc-linux-gnu"

%"struct.std::_Rb_tree_key_compare.21" = type { %"struct.std::less.22" }
%"struct.std::less.22" = type { i8 }
%"struct.std::_Rb_tree_header" = type { %"struct.std::_Rb_tree_node_base", i64 }
%"struct.std::_Rb_tree_node_base" = type { i32, ptr, ptr, ptr }
%"struct.std::_Rb_tree_key_compare.33" = type { %"struct.std::less.34" }
%"struct.std::less.34" = type { i8 }
%"class.std::__cxx11::basic_string" = type { %"struct.std::__cxx11::basic_string<char>::_Alloc_hider", i64, %union.anon }
%"struct.std::__cxx11::basic_string<char>::_Alloc_hider" = type { ptr }
%union.anon = type { i64, [8 x i8] }
%"class.casadi::OptiNode" = type { %"class.casadi::SharedObjectInternal", i8, i8, i8, %"class.std::map", %"class.std::map.6", %"class.std::vector.11", i64, i64, i64, i64, %"class.std::map.16", %"class.std::map.16", %"class.std::vector.24", %"class.casadi::Function", %"class.std::map.28", %"class.std::map.28", %"class.std::map.36", %"class.casadi::MX", %"class.casadi::Function", %"class.casadi::MX", %"class.casadi::MX", %"class.std::vector.11", %"class.casadi::MX", %"class.std::__cxx11::basic_string", %"class.casadi::null_ptr_on_copy", %"class.casadi::Function", %"class.std::__cxx11::basic_string", %"class.std::map.42", i64 }
%"class.casadi::SharedObjectInternal" = type { ptr, i64, ptr }
%"class.std::map" = type { %"class.std::_Rb_tree" }
%"class.std::_Rb_tree" = type { %"struct.std::_Rb_tree<casadi::MXNode *, std::pair<casadi::MXNode *const, casadi::MetaVar>, std::_Select1st<std::pair<casadi::MXNode *const, casadi::MetaVar>>, std::less<casadi::MXNode *>>::_Rb_tree_impl" }
%"struct.std::_Rb_tree<casadi::MXNode *, std::pair<casadi::MXNode *const, casadi::MetaVar>, std::_Select1st<std::pair<casadi::MXNode *const, casadi::MetaVar>>, std::less<casadi::MXNode *>>::_Rb_tree_impl" = type { %"struct.std::_Rb_tree_key_compare", %"struct.std::_Rb_tree_header" }
%"struct.std::_Rb_tree_key_compare" = type { %"struct.std::less" }
%"struct.std::less" = type { i8 }
%"class.std::map.6" = type { %"class.std::_Rb_tree.7" }
%"class.std::_Rb_tree.7" = type { %"struct.std::_Rb_tree<casadi::MXNode *, std::pair<casadi::MXNode *const, casadi::MetaCon>, std::_Select1st<std::pair<casadi::MXNode *const, casadi::MetaCon>>, std::less<casadi::MXNode *>>::_Rb_tree_impl" }
%"struct.std::_Rb_tree<casadi::MXNode *, std::pair<casadi::MXNode *const, casadi::MetaCon>, std::_Select1st<std::pair<casadi::MXNode *const, casadi::MetaCon>>, std::less<casadi::MXNode *>>::_Rb_tree_impl" = type { %"struct.std::_Rb_tree_key_compare", %"struct.std::_Rb_tree_header" }
%"class.std::map.16" = type { %"class.std::_Rb_tree.17" }
%"class.std::_Rb_tree.17" = type { %"struct.std::_Rb_tree<casadi::VariableType, std::pair<const casadi::VariableType, std::vector<casadi::Matrix<double>>>, std::_Select1st<std::pair<const casadi::VariableType, std::vector<casadi::Matrix<double>>>>, std::less<casadi::VariableType>>::_Rb_tree_impl" }
%"struct.std::_Rb_tree<casadi::VariableType, std::pair<const casadi::VariableType, std::vector<casadi::Matrix<double>>>, std::_Select1st<std::pair<const casadi::VariableType, std::vector<casadi::Matrix<double>>>>, std::less<casadi::VariableType>>::_Rb_tree_impl" = type { %"struct.std::_Rb_tree_key_compare.21", %"struct.std::_Rb_tree_header" }
%"class.std::vector.24" = type { %"struct.std::_Bvector_base" }
%"struct.std::_Bvector_base" = type { %"struct.std::_Bvector_base<std::allocator<bool>>::_Bvector_impl" }
%"struct.std::_Bvector_base<std::allocator<bool>>::_Bvector_impl" = type { %"struct.std::_Bvector_base<std::allocator<bool>>::_Bvector_impl_data" }
%"struct.std::_Bvector_base<std::allocator<bool>>::_Bvector_impl_data" = type { %"struct.std::_Bit_iterator", %"struct.std::_Bit_iterator", ptr }
%"struct.std::_Bit_iterator" = type { %"struct.std::_Bit_iterator_base.base", [4 x i8] }
%"struct.std::_Bit_iterator_base.base" = type <{ ptr, i32 }>
%"class.std::map.28" = type { %"class.std::_Rb_tree.29" }
%"class.std::_Rb_tree.29" = type { %"struct.std::_Rb_tree<std::__cxx11::basic_string<char>, std::pair<const std::__cxx11::basic_string<char>, casadi::Matrix<double>>, std::_Select1st<std::pair<const std::__cxx11::basic_string<char>, casadi::Matrix<double>>>, std::less<std::__cxx11::basic_string<char>>>::_Rb_tree_impl" }
%"struct.std::_Rb_tree<std::__cxx11::basic_string<char>, std::pair<const std::__cxx11::basic_string<char>, casadi::Matrix<double>>, std::_Select1st<std::pair<const std::__cxx11::basic_string<char>, casadi::Matrix<double>>>, std::less<std::__cxx11::basic_string<char>>>::_Rb_tree_impl" = type { %"struct.std::_Rb_tree_key_compare.33", %"struct.std::_Rb_tree_header" }
%"class.std::map.36" = type { %"class.std::_Rb_tree.37" }
%"class.std::_Rb_tree.37" = type { %"struct.std::_Rb_tree<std::__cxx11::basic_string<char>, std::pair<const std::__cxx11::basic_string<char>, casadi::MX>, std::_Select1st<std::pair<const std::__cxx11::basic_string<char>, casadi::MX>>, std::less<std::__cxx11::basic_string<char>>>::_Rb_tree_impl" }
%"struct.std::_Rb_tree<std::__cxx11::basic_string<char>, std::pair<const std::__cxx11::basic_string<char>, casadi::MX>, std::_Select1st<std::pair<const std::__cxx11::basic_string<char>, casadi::MX>>, std::less<std::__cxx11::basic_string<char>>>::_Rb_tree_impl" = type { %"struct.std::_Rb_tree_key_compare.33", %"struct.std::_Rb_tree_header" }
%"class.std::vector.11" = type { %"struct.std::_Vector_base.12" }
%"struct.std::_Vector_base.12" = type { %"struct.std::_Vector_base<casadi::MX, std::allocator<casadi::MX>>::_Vector_impl" }
%"struct.std::_Vector_base<casadi::MX, std::allocator<casadi::MX>>::_Vector_impl" = type { %"struct.std::_Vector_base<casadi::MX, std::allocator<casadi::MX>>::_Vector_impl_data" }
%"struct.std::_Vector_base<casadi::MX, std::allocator<casadi::MX>>::_Vector_impl_data" = type { ptr, ptr, ptr }
%"class.casadi::MX" = type { %"class.casadi::SharedObject" }
%"class.casadi::SharedObject" = type { ptr }
%"class.casadi::null_ptr_on_copy" = type { ptr }
%"class.casadi::Function" = type { %"class.casadi::SharedObject" }
%"class.std::map.42" = type { %"class.std::_Rb_tree.43" }
%"class.std::_Rb_tree.43" = type { %"struct.std::_Rb_tree<std::__cxx11::basic_string<char>, std::pair<const std::__cxx11::basic_string<char>, casadi::GenericType>, std::_Select1st<std::pair<const std::__cxx11::basic_string<char>, casadi::GenericType>>, std::less<std::__cxx11::basic_string<char>>>::_Rb_tree_impl" }
%"struct.std::_Rb_tree<std::__cxx11::basic_string<char>, std::pair<const std::__cxx11::basic_string<char>, casadi::GenericType>, std::_Select1st<std::pair<const std::__cxx11::basic_string<char>, casadi::GenericType>>, std::less<std::__cxx11::basic_string<char>>>::_Rb_tree_impl" = type { %"struct.std::_Rb_tree_key_compare.33", %"struct.std::_Rb_tree_header" }
%"class.casadi::GenericType" = type { %"class.casadi::SharedObject" }

; Function Attrs: mustprogress nounwind uwtable
define linkonce_odr hidden void @_ZN6casadi8OptiNode11mark_solvedEb(ptr noundef nonnull align 8 dereferenceable(672) %0, i1 noundef zeroext %1) #5 comdat align 2 {
  %3 = alloca ptr, align 8
  %4 = alloca i8, align 1
  store ptr %0, ptr %3, align 8
  %5 = zext i1 %1 to i8
  store i8 %5, ptr %4, align 1
  %6 = load ptr, ptr %3, align 8
  %7 = load i8, ptr %4, align 1
  %8 = trunc i8 %7 to i1
  %9 = getelementptr inbounds %"class.casadi::OptiNode", ptr %6, i32 0, i32 3
  %10 = zext i1 %8 to i8
  store i8 %10, ptr %9, align 2
  ret void
}

; Function Attrs: mustprogress nounwind uwtable
define linkonce_odr hidden noundef zeroext i1 @_ZNKSt8_Rb_treeINSt7__cxx1112basic_stringIcSt11char_traitsIcESaIcEEESt4pairIKS5_N6casadi11GenericTypeEESt10_Select1stISA_ESt4lessIS5_ESaISA_EE5emptyEv(ptr noundef nonnull align 8 dereferenceable(48) %0) #5 comdat align 2 {
  %2 = alloca ptr, align 8
  store ptr %0, ptr %2, align 8
  %3 = load ptr, ptr %2, align 8
  %4 = getelementptr inbounds %"class.std::_Rb_tree.43", ptr %3, i32 0, i32 0
  %5 = getelementptr inbounds i8, ptr %4, i64 8
  %6 = getelementptr inbounds %"struct.std::_Rb_tree_header", ptr %5, i32 0, i32 1
  %7 = load i64, ptr %6, align 8
  %8 = icmp eq i64 %7, 0
  ret i1 %8
}

; Function Attrs: mustprogress uwtable
define linkonce_odr hidden void @_ZN6casadi8OptiNode17mark_solver_dirtyEb(ptr noundef nonnull align 8 dereferenceable(672) %0, i1 noundef zeroext %1) #4 comdat align 2 {
  %3 = alloca ptr, align 8
  %4 = alloca i8, align 1
  store ptr %0, ptr %3, align 8
  %5 = zext i1 %1 to i8
  store i8 %5, ptr %4, align 1
  %6 = load ptr, ptr %3, align 8
  %7 = load i8, ptr %4, align 1
  %8 = trunc i8 %7 to i1
  %9 = getelementptr inbounds %"class.casadi::OptiNode", ptr %6, i32 0, i32 2
  %10 = zext i1 %8 to i8
  store i8 %10, ptr %9, align 1
  call void @_ZN6casadi8OptiNode11mark_solvedEb(ptr noundef nonnull align 8 dereferenceable(672) %6, i1 noundef zeroext false)
  ret void
}

; Function Attrs: mustprogress nounwind uwtable
define linkonce_odr hidden void @_ZN6casadi11GenericTypeD2Ev(ptr noundef nonnull align 8 dereferenceable(8) %0) unnamed_addr #5 comdat align 2 {
  %2 = alloca ptr, align 8
  store ptr %0, ptr %2, align 8
  %3 = load ptr, ptr %2, align 8
  call void @_ZN6casadi12SharedObjectD2Ev(ptr noundef nonnull align 8 dereferenceable(8) %3) #3
  ret void
}

; Function Attrs: mustprogress uwtable
define linkonce_odr hidden noundef nonnull align 8 dereferenceable(8) ptr @_ZN6casadi11GenericTypeaSEOS0_(ptr noundef nonnull align 8 dereferenceable(8) %0, ptr noundef nonnull align 8 dereferenceable(8) %1) #4 comdat align 2 {
  %3 = alloca ptr, align 8
  %4 = alloca ptr, align 8
  store ptr %0, ptr %3, align 8
  store ptr %1, ptr %4, align 8
  %5 = load ptr, ptr %3, align 8
  %6 = load ptr, ptr %4, align 8
  %7 = call noundef nonnull align 8 dereferenceable(8) ptr @_ZN6casadi12SharedObjectaSERKS0_(ptr noundef nonnull align 8 dereferenceable(8) %5, ptr noundef nonnull align 8 dereferenceable(8) %6)
  ret ptr %5
}

; Function Attrs: mustprogress nounwind uwtable
define linkonce_odr hidden noundef zeroext i1 @_ZNKSt3mapINSt7__cxx1112basic_stringIcSt11char_traitsIcESaIcEEEN6casadi11GenericTypeESt4lessIS5_ESaISt4pairIKS5_S7_EEE5emptyEv(ptr noundef nonnull align 8 dereferenceable(48) %0) #5 comdat align 2 {
  %2 = alloca ptr, align 8
  store ptr %0, ptr %2, align 8
  %3 = load ptr, ptr %2, align 8
  %4 = getelementptr inbounds %"class.std::map.42", ptr %3, i32 0, i32 0
  %5 = call noundef zeroext i1 @_ZNKSt8_Rb_treeINSt7__cxx1112basic_stringIcSt11char_traitsIcESaIcEEESt4pairIKS5_N6casadi11GenericTypeEESt10_Select1stISA_ESt4lessIS5_ESaISA_EE5emptyEv(ptr noundef nonnull align 8 dereferenceable(48) %4) #3
  ret i1 %5
}

; Function Attrs: mustprogress uwtable
define linkonce_odr hidden noundef nonnull align 8 dereferenceable(48) ptr @_ZNSt3mapINSt7__cxx1112basic_stringIcSt11char_traitsIcESaIcEEEN6casadi11GenericTypeESt4lessIS5_ESaISt4pairIKS5_S7_EEEaSERKSE_(ptr noundef nonnull align 8 dereferenceable(48) %0, ptr noundef nonnull align 8 dereferenceable(48) %1) #4 comdat align 2 {
  %3 = alloca ptr, align 8
  %4 = alloca ptr, align 8
  store ptr %0, ptr %3, align 8
  store ptr %1, ptr %4, align 8
  %5 = load ptr, ptr %3, align 8
  %6 = getelementptr inbounds %"class.std::map.42", ptr %5, i32 0, i32 0
  %7 = load ptr, ptr %4, align 8
  %8 = getelementptr inbounds %"class.std::map.42", ptr %7, i32 0, i32 0
  %9 = call noundef nonnull align 8 dereferenceable(48) ptr @_ZNSt8_Rb_treeINSt7__cxx1112basic_stringIcSt11char_traitsIcESaIcEEESt4pairIKS5_N6casadi11GenericTypeEESt10_Select1stISA_ESt4lessIS5_ESaISA_EEaSERKSG_(ptr noundef nonnull align 8 dereferenceable(48) %6, ptr noundef nonnull align 8 dereferenceable(48) %8)
  ret ptr %5
}

; Function Attrs: mustprogress uwtable
define void @_ZN6casadi8OptiNode6solverERKNSt7__cxx1112basic_stringIcSt11char_traitsIcESaIcEEERKSt3mapIS6_NS_11GenericTypeESt4lessIS6_ESaISt4pairIS7_SA_EEESI_(ptr noundef nonnull align 8 dereferenceable(672) %0, ptr noundef nonnull align 8 dereferenceable(32) %1, ptr noundef nonnull align 8 dereferenceable(48) %2, ptr noundef nonnull align 8 dereferenceable(48) %3) #4 align 2 personality ptr @__gxx_personality_v0 {
  %5 = alloca ptr, align 8
  %6 = alloca ptr, align 8
  %7 = alloca ptr, align 8
  %8 = alloca ptr, align 8
  %9 = alloca %"class.casadi::GenericType", align 8
  %10 = alloca ptr, align 8
  %11 = alloca i32, align 4
  store ptr %0, ptr %5, align 8
  store ptr %1, ptr %6, align 8
  store ptr %2, ptr %7, align 8
  store ptr %3, ptr %8, align 8
  %12 = load ptr, ptr %5, align 8
  %13 = load ptr, ptr %6, align 8
  %14 = getelementptr inbounds %"class.casadi::OptiNode", ptr %12, i32 0, i32 27
  %15 = call noundef nonnull align 8 dereferenceable(32) ptr @_ZNSt7__cxx1112basic_stringIcSt11char_traitsIcESaIcEEaSERKS4_(ptr noundef nonnull align 8 dereferenceable(32) %14, ptr noundef nonnull align 8 dereferenceable(32) %13)
  %16 = load ptr, ptr %7, align 8
  %17 = getelementptr inbounds %"class.casadi::OptiNode", ptr %12, i32 0, i32 28
  %18 = call noundef nonnull align 8 dereferenceable(48) ptr @_ZNSt3mapINSt7__cxx1112basic_stringIcSt11char_traitsIcESaIcEEEN6casadi11GenericTypeESt4lessIS5_ESaISt4pairIKS5_S7_EEEaSERKSE_(ptr noundef nonnull align 8 dereferenceable(48) %17, ptr noundef nonnull align 8 dereferenceable(48) %16)
  %19 = load ptr, ptr %8, align 8
  %20 = call noundef zeroext i1 @_ZNKSt3mapINSt7__cxx1112basic_stringIcSt11char_traitsIcESaIcEEEN6casadi11GenericTypeESt4lessIS5_ESaISt4pairIKS5_S7_EEE5emptyEv(ptr noundef nonnull align 8 dereferenceable(48) %19) #3
  br i1 %20, label %33, label %21

21:                                               ; preds = %4
  %22 = load ptr, ptr %8, align 8
  call void @_ZN6casadi11GenericTypeC1ERKSt3mapINSt7__cxx1112basic_stringIcSt11char_traitsIcESaIcEEES0_St4lessIS7_ESaISt4pairIKS7_S0_EEE(ptr noundef nonnull align 8 dereferenceable(8) %9, ptr noundef nonnull align 8 dereferenceable(48) %22)
  %23 = getelementptr inbounds %"class.casadi::OptiNode", ptr %12, i32 0, i32 28
  %24 = load ptr, ptr %6, align 8
  %25 = invoke noundef nonnull align 8 dereferenceable(8) ptr @_ZNSt3mapINSt7__cxx1112basic_stringIcSt11char_traitsIcESaIcEEEN6casadi11GenericTypeESt4lessIS5_ESaISt4pairIKS5_S7_EEEixERSB_(ptr noundef nonnull align 8 dereferenceable(48) %23, ptr noundef nonnull align 8 dereferenceable(32) %24)
          to label %26 unwind label %29

26:                                               ; preds = %21
  %27 = invoke noundef nonnull align 8 dereferenceable(8) ptr @_ZN6casadi11GenericTypeaSEOS0_(ptr noundef nonnull align 8 dereferenceable(8) %25, ptr noundef nonnull align 8 dereferenceable(8) %9)
          to label %28 unwind label %29

28:                                               ; preds = %26
  call void @_ZN6casadi11GenericTypeD2Ev(ptr noundef nonnull align 8 dereferenceable(8) %9) #3
  br label %33

29:                                               ; preds = %26, %21
  %30 = landingpad { ptr, i32 }
          cleanup
  %31 = extractvalue { ptr, i32 } %30, 0
  store ptr %31, ptr %10, align 8
  %32 = extractvalue { ptr, i32 } %30, 1
  store i32 %32, ptr %11, align 4
  call void @_ZN6casadi11GenericTypeD2Ev(ptr noundef nonnull align 8 dereferenceable(8) %9) #3
  br label %34

33:                                               ; preds = %28, %4
  call void @_ZN6casadi8OptiNode17mark_solver_dirtyEb(ptr noundef nonnull align 8 dereferenceable(672) %12, i1 noundef zeroext true)
  ret void

34:                                               ; preds = %29
  %35 = load ptr, ptr %10, align 8
  %36 = load i32, ptr %11, align 4
  %37 = insertvalue { ptr, i32 } poison, ptr %35, 0
  %38 = insertvalue { ptr, i32 } %37, i32 %36, 1
  resume { ptr, i32 } %38
}